; Function Attrs: nounwind uwtable
define dso_local i32 @job_state(ptr noundef %0) local_unnamed_addr #0 {
  %2 = getelementptr inbounds nuw i8, ptr %0, i64 112
  %3 = tail call i32 @pthread_mutex_lock(ptr noundef nonnull %2) #15
  %.not = icmp eq i32 %3, 0
  br i1 %.not, label %6, label %4

4:                                                ; preds = %1
  %5 = tail call ptr @__errno_location() #16
  store i32 %3, ptr %5, align 4
  tail call void (ptr, ...) @fatal_abort(ptr noundef nonnull @.str.40, ptr noundef nonnull @__func__.job_state) #17
  unreachable

6:                                                ; preds = %1
  %7 = getelementptr inbounds nuw i8, ptr %0, i64 108
  %8 = load i32, ptr %7, align 4
  %9 = tail call i32 @pthread_mutex_unlock(ptr noundef nonnull %2) #15
  %.not8 = icmp eq i32 %9, 0
  br i1 %.not8, label %12, label %10

10:                                               ; preds = %6
  %11 = tail call ptr @__errno_location() #16
  store i32 %9, ptr %11, align 4
  tail call void (ptr, ...) @fatal_abort(ptr noundef nonnull @.str.42, ptr noundef nonnull @__func__.job_state) #17
  unreachable

12:                                               ; preds = %6
  ret i32 %8
}